target datalayout = "e-m:e-p270:32:32-p271:32:32-p272:64:64-i64:64-i128:128-f80:128-n8:16:32:64-S128"
target triple = "x86_64-unknown-linux-gnu"

@_ZN4cvc58internal4prop13CadicalSolverD1Ev = hidden unnamed_addr alias void (ptr), ptr @_ZN4cvc58internal4prop13CadicalSolverD2Ev

; Function Attrs: mustprogress nounwind uwtable
define hidden void @_ZN4cvc58internal4prop13CadicalSolverD0Ev(ptr noundef nonnull align 8 dereferenceable(144) %this) unnamed_addr #4 align 2 {
entry:
  %this.addr = alloca ptr, align 8
  store ptr %this, ptr %this.addr, align 8
  %this1 = load ptr, ptr %this.addr, align 8
  call void @_ZN4cvc58internal4prop13CadicalSolverD1Ev(ptr noundef nonnull align 8 dereferenceable(144) %this1) #3
  call void @_ZdlPv(ptr noundef %this1) #18
  ret void
}

; Function Attrs: nounwind uwtable
define hidden void @_ZThn8_N4cvc58internal4prop13CadicalSolverD0Ev(ptr noundef %this) unnamed_addr #8 align 2 {
entry:
  %this.addr = alloca ptr, align 8
  store ptr %this, ptr %this.addr, align 8
  %this1 = load ptr, ptr %this.addr, align 8
  %0 = getelementptr inbounds i8, ptr %this1, i64 -8
  tail call void @_ZN4cvc58internal4prop13CadicalSolverD0Ev(ptr noundef nonnull align 8 dereferenceable(144) %0) #3
  ret void
}