; Function Attrs: nounwind uwtable
define hidden void @_ZThn8_N4cvc58internal4prop13CadicalSolverD0Ev(ptr noundef %this) unnamed_addr #7 align 2 personality ptr @__gxx_personality_v0 {
entry:
  %0 = getelementptr inbounds i8, ptr %this, i64 -8
  store ptr getelementptr inbounds ({ [31 x ptr], [4 x ptr] }, ptr @_ZTVN4cvc58internal4prop13CadicalSolverE, i64 0, i32 0, i64 2), ptr %0, align 8
  store ptr getelementptr inbounds ({ [31 x ptr], [4 x ptr] }, ptr @_ZTVN4cvc58internal4prop13CadicalSolverE, i64 0, i32 1, i64 2), ptr %this, align 8
  %d_assumptions.i.i = getelementptr inbounds i8, ptr %this, i64 56
  %1 = load ptr, ptr %d_assumptions.i.i, align 8
  %tobool.not.i.i.i.i.i = icmp eq ptr %1, null
  br i1 %tobool.not.i.i.i.i.i, label %_ZNSt6vectorIN4cvc58internal4prop10SatLiteralESaIS3_EED2Ev.exit.i.i, label %if.then.i.i.i.i.i

if.then.i.i.i.i.i:                                ; preds = %entry
  tail call void @_ZdlPv(ptr noundef nonnull %1) #27
  br label %_ZNSt6vectorIN4cvc58internal4prop10SatLiteralESaIS3_EED2Ev.exit.i.i

_ZNSt6vectorIN4cvc58internal4prop10SatLiteralESaIS3_EED2Ev.exit.i.i: ; preds = %if.then.i.i.i.i.i, %entry
  %d_propagator.i.i = getelementptr inbounds i8, ptr %this, i64 48
  %2 = load ptr, ptr %d_propagator.i.i, align 8
  %cmp.not.i.i.i = icmp eq ptr %2, null
  br i1 %cmp.not.i.i.i, label %_ZNSt10unique_ptrIN4cvc58internal4prop17CadicalPropagatorESt14default_deleteIS3_EED2Ev.exit.i.i, label %_ZNKSt14default_deleteIN4cvc58internal4prop17CadicalPropagatorEEclEPS3_.exit.i.i.i

_ZNKSt14default_deleteIN4cvc58internal4prop17CadicalPropagatorEEclEPS3_.exit.i.i.i: ; preds = %_ZNSt6vectorIN4cvc58internal4prop10SatLiteralESaIS3_EED2Ev.exit.i.i
  %vtable.i.i.i.i = load ptr, ptr %2, align 8
  %vfn.i.i.i.i = getelementptr inbounds i8, ptr %vtable.i.i.i.i, i64 8
  %3 = load ptr, ptr %vfn.i.i.i.i, align 8
  tail call void %3(ptr noundef nonnull align 8 dereferenceable(482) %2) #28
  br label %_ZNSt10unique_ptrIN4cvc58internal4prop17CadicalPropagatorESt14default_deleteIS3_EED2Ev.exit.i.i

_ZNSt10unique_ptrIN4cvc58internal4prop17CadicalPropagatorESt14default_deleteIS3_EED2Ev.exit.i.i: ; preds = %_ZNKSt14default_deleteIN4cvc58internal4prop17CadicalPropagatorEEclEPS3_.exit.i.i.i, %_ZNSt6vectorIN4cvc58internal4prop10SatLiteralESaIS3_EED2Ev.exit.i.i
  store ptr null, ptr %d_propagator.i.i, align 8
  %d_terminator.i.i = getelementptr inbounds i8, ptr %this, i64 24
  %4 = load ptr, ptr %d_terminator.i.i, align 8
  %cmp.not.i1.i.i = icmp eq ptr %4, null
  br i1 %cmp.not.i1.i.i, label %_ZNSt10unique_ptrIN7CaDiCaL10TerminatorESt14default_deleteIS1_EED2Ev.exit.i.i, label %_ZNKSt14default_deleteIN7CaDiCaL10TerminatorEEclEPS1_.exit.i.i.i

_ZNKSt14default_deleteIN7CaDiCaL10TerminatorEEclEPS1_.exit.i.i.i: ; preds = %_ZNSt10unique_ptrIN4cvc58internal4prop17CadicalPropagatorESt14default_deleteIS3_EED2Ev.exit.i.i
  %vtable.i.i2.i.i = load ptr, ptr %4, align 8
  %vfn.i.i3.i.i = getelementptr inbounds i8, ptr %vtable.i.i2.i.i, i64 8
  %5 = load ptr, ptr %vfn.i.i3.i.i, align 8
  tail call void %5(ptr noundef nonnull align 8 dereferenceable(8) %4) #28
  br label %_ZNSt10unique_ptrIN7CaDiCaL10TerminatorESt14default_deleteIS1_EED2Ev.exit.i.i

_ZNSt10unique_ptrIN7CaDiCaL10TerminatorESt14default_deleteIS1_EED2Ev.exit.i.i: ; preds = %_ZNKSt14default_deleteIN7CaDiCaL10TerminatorEEclEPS1_.exit.i.i.i, %_ZNSt10unique_ptrIN4cvc58internal4prop17CadicalPropagatorESt14default_deleteIS3_EED2Ev.exit.i.i
  store ptr null, ptr %d_terminator.i.i, align 8
  %d_solver.i.i = getelementptr inbounds i8, ptr %this, i64 16
  %6 = load ptr, ptr %d_solver.i.i, align 8
  %cmp.not.i4.i.i = icmp eq ptr %6, null
  br i1 %cmp.not.i4.i.i, label %_ZN4cvc58internal4prop13CadicalSolverD0Ev.exit, label %_ZNKSt14default_deleteIN7CaDiCaL6SolverEEclEPS1_.exit.i.i.i

_ZNKSt14default_deleteIN7CaDiCaL6SolverEEclEPS1_.exit.i.i.i: ; preds = %_ZNSt10unique_ptrIN7CaDiCaL10TerminatorESt14default_deleteIS1_EED2Ev.exit.i.i
  tail call void @_ZN7CaDiCaL6SolverD1Ev(ptr noundef nonnull align 8 dereferenceable(40) %6) #28
  tail call void @_ZdlPv(ptr noundef nonnull %6) #27
  br label %_ZN4cvc58internal4prop13CadicalSolverD0Ev.exit

_ZN4cvc58internal4prop13CadicalSolverD0Ev.exit:   ; preds = %_ZNSt10unique_ptrIN7CaDiCaL10TerminatorESt14default_deleteIS1_EED2Ev.exit.i.i, %_ZNKSt14default_deleteIN7CaDiCaL6SolverEEclEPS1_.exit.i.i.i
  tail call void @_ZdlPv(ptr noundef nonnull %0) #27
  ret void
}